target datalayout = "e-m:e-p270:32:32-p271:32:32-p272:64:64-i64:64-i128:128-f80:128-n8:16:32:64-S128"
target triple = "x86_64-pc-linux-gnu"

%struct._zend_executor_globals = type { %struct._zval_struct, %struct._zval_struct, [32 x ptr], ptr, ptr, %struct._zend_array, %struct._zend_array, ptr, i32, i32, ptr, ptr, ptr, ptr, ptr, ptr, i64, ptr, ptr, i32, i32, i64, i32, i32, i32, i8, i8, %struct.zend_atomic_bool_s, %struct.zend_atomic_bool_s, ptr, i64, ptr, ptr, %struct._zend_array, %struct._zend_array, i32, i8, %struct._zval_struct, %struct._zval_struct, %struct._zend_stack, %struct._zend_stack, %struct._zend_stack, ptr, i32, i32, i64, ptr, ptr, ptr, %struct._zend_objects_store, ptr, ptr, ptr, [3 x %struct._zend_op], ptr, i8, i8, i64, i32, i32, ptr, [16 x %struct._HashTableIterator], ptr, %union._zend_function, %struct._zend_op, %struct._zend_array, i64, %struct.zend_get_gc_buffer, ptr, ptr, ptr, i64, i8, i32, ptr, ptr, i64, %struct._zend_call_stack, i64, i64, [6 x ptr] }
%struct.zend_atomic_bool_s = type { i8 }
%struct._zval_struct = type { %union._zend_value, %union.anon, %union.anon.2 }
%union._zend_value = type { i64 }
%union.anon = type { i32 }
%union.anon.2 = type { i32 }
%struct._zend_stack = type { i32, i32, i32, ptr }
%struct._zend_objects_store = type { ptr, i32, i32, i32 }
%struct._HashTableIterator = type { ptr, i32, i32 }
%union._zend_function = type { %struct._zend_op_array }
%struct._zend_op_array = type { i8, [3 x i8], i32, ptr, ptr, ptr, i32, i32, ptr, ptr, ptr, ptr, i32, i32, i32, i32, ptr, ptr, ptr, ptr, ptr, i32, i32, ptr, ptr, ptr, i32, i32, i32, i32, ptr, ptr, [6 x ptr] }
%struct._zend_op = type { ptr, %union._znode_op, %union._znode_op, %union._znode_op, i32, i32, i8, i8, i8, i8 }
%union._znode_op = type { i32 }
%struct._zend_array = type { %struct._zend_refcounted_h, %union.anon.4, i32, %union.anon.6, i32, i32, i32, i32, i64, ptr }
%struct._zend_refcounted_h = type { i32, %union.anon.3 }
%union.anon.3 = type { i32 }
%union.anon.4 = type { i32 }
%union.anon.6 = type { ptr }
%struct.zend_get_gc_buffer = type { ptr, ptr, ptr }
%struct._zend_call_stack = type { ptr, i64 }
%struct._php_core_globals = type { i64, i8, i8, i8, i8, i8, i8, i8, i8, ptr, ptr, i64, i64, i64, ptr, ptr, ptr, ptr, ptr, i8, ptr, ptr, ptr, ptr, i64, ptr, ptr, ptr, ptr, ptr, ptr, ptr, %struct._arg_separators, ptr, %struct._zend_array, i16, i8, i8, %struct._zend_llist, [6 x %struct._zval_struct], i8, i8, i8, i8, i8, ptr, ptr, i64, [8 x i8], i8, i8, i8, i8, i8, i8, i32, i32, ptr, ptr, ptr, ptr, i64, i64, ptr, i64, ptr, ptr, i8, i8, i8, i8, i8, i8, i64, ptr, i64, i64 }
%struct._arg_separators = type { ptr, ptr }
%struct._zend_llist = type { ptr, ptr, i64, i64, ptr, i8, ptr }

@executor_globals = external global %struct._zend_executor_globals, align 8
@core_globals = external global %struct._php_core_globals, align 8

; Function Attrs: nounwind uwtable
define internal zeroext i1 @php_auto_globals_create_request(ptr noundef %0) #0 {
  %2 = alloca ptr, align 8
  %3 = alloca %struct._zval_struct, align 8
  %4 = alloca [3 x i8], align 1
  %5 = alloca ptr, align 8
  %6 = alloca ptr, align 8
  %7 = alloca ptr, align 8
  store ptr %0, ptr %2, align 8
  call void @llvm.memset.p0.i64(ptr align 1 %4, i8 0, i64 3, i1 false)
  br label %8

8:                                                ; preds = %1
  %9 = call ptr @_zend_new_array_0()
  store ptr %9, ptr %6, align 8
  store ptr %3, ptr %7, align 8
  %10 = load ptr, ptr %6, align 8
  %11 = load ptr, ptr %7, align 8
  %12 = getelementptr inbounds %struct._zval_struct, ptr %11, i32 0, i32 0
  store ptr %10, ptr %12, align 8
  %13 = load ptr, ptr %7, align 8
  %14 = getelementptr inbounds %struct._zval_struct, ptr %13, i32 0, i32 1
  store i32 775, ptr %14, align 8
  br label %15

15:                                               ; preds = %8
  %16 = load ptr, ptr getelementptr inbounds (%struct._php_core_globals, ptr @core_globals, i32 0, i32 65), align 8
  %17 = icmp ne ptr %16, null
  br i1 %17, label %18, label %20

18:                                               ; preds = %15
  %19 = load ptr, ptr getelementptr inbounds (%struct._php_core_globals, ptr @core_globals, i32 0, i32 65), align 8
  store ptr %19, ptr %5, align 8
  br label %22

20:                                               ; preds = %15
  %21 = load ptr, ptr getelementptr inbounds (%struct._php_core_globals, ptr @core_globals, i32 0, i32 33), align 8
  store ptr %21, ptr %5, align 8
  br label %22

22:                                               ; preds = %20, %18
  br label %23

23:                                               ; preds = %68, %22
  %24 = load ptr, ptr %5, align 8
  %25 = icmp ne ptr %24, null
  br i1 %25, label %26, label %31

26:                                               ; preds = %23
  %27 = load ptr, ptr %5, align 8
  %28 = load i8, ptr %27, align 1
  %29 = sext i8 %28 to i32
  %30 = icmp ne i32 %29, 0
  br label %31

31:                                               ; preds = %26, %23
  %32 = phi i1 [ false, %23 ], [ %30, %26 ]
  br i1 %32, label %33, label %71

33:                                               ; preds = %31
  %34 = load ptr, ptr %5, align 8
  %35 = load i8, ptr %34, align 1
  %36 = sext i8 %35 to i32
  switch i32 %36, label %67 [
    i32 103, label %37
    i32 71, label %37
    i32 112, label %47
    i32 80, label %47
    i32 99, label %57
    i32 67, label %57
  ]

37:                                               ; preds = %33, %33
  %38 = getelementptr inbounds [3 x i8], ptr %4, i64 0, i64 0
  %39 = load i8, ptr %38, align 1
  %40 = icmp ne i8 %39, 0
  br i1 %40, label %46, label %41

41:                                               ; preds = %37
  %42 = getelementptr inbounds %struct._zval_struct, ptr %3, i32 0, i32 0
  %43 = load ptr, ptr %42, align 8
  %44 = load ptr, ptr getelementptr inbounds (%struct._php_core_globals, ptr @core_globals, i32 0, i32 39, i64 1), align 8
  call void @php_autoglobal_merge(ptr noundef %43, ptr noundef %44)
  %45 = getelementptr inbounds [3 x i8], ptr %4, i64 0, i64 0
  store i8 1, ptr %45, align 1
  br label %46

46:                                               ; preds = %41, %37
  br label %67

47:                                               ; preds = %33, %33
  %48 = getelementptr inbounds [3 x i8], ptr %4, i64 0, i64 1
  %49 = load i8, ptr %48, align 1
  %50 = icmp ne i8 %49, 0
  br i1 %50, label %56, label %51

51:                                               ; preds = %47
  %52 = getelementptr inbounds %struct._zval_struct, ptr %3, i32 0, i32 0
  %53 = load ptr, ptr %52, align 8
  %54 = load ptr, ptr getelementptr inbounds (%struct._php_core_globals, ptr @core_globals, i32 0, i32 39), align 8
  call void @php_autoglobal_merge(ptr noundef %53, ptr noundef %54)
  %55 = getelementptr inbounds [3 x i8], ptr %4, i64 0, i64 1
  store i8 1, ptr %55, align 1
  br label %56

56:                                               ; preds = %51, %47
  br label %67

57:                                               ; preds = %33, %33
  %58 = getelementptr inbounds [3 x i8], ptr %4, i64 0, i64 2
  %59 = load i8, ptr %58, align 1
  %60 = icmp ne i8 %59, 0
  br i1 %60, label %66, label %61

61:                                               ; preds = %57
  %62 = getelementptr inbounds %struct._zval_struct, ptr %3, i32 0, i32 0
  %63 = load ptr, ptr %62, align 8
  %64 = load ptr, ptr getelementptr inbounds (%struct._php_core_globals, ptr @core_globals, i32 0, i32 39, i64 2), align 8
  call void @php_autoglobal_merge(ptr noundef %63, ptr noundef %64)
  %65 = getelementptr inbounds [3 x i8], ptr %4, i64 0, i64 2
  store i8 1, ptr %65, align 1
  br label %66

66:                                               ; preds = %61, %57
  br label %67

67:                                               ; preds = %66, %56, %46, %33
  br label %68

68:                                               ; preds = %67
  %69 = load ptr, ptr %5, align 8
  %70 = getelementptr inbounds i8, ptr %69, i32 1
  store ptr %70, ptr %5, align 8
  br label %23

71:                                               ; preds = %31
  %72 = load ptr, ptr %2, align 8
  %73 = call ptr @zend_hash_update(ptr noundef getelementptr inbounds (%struct._zend_executor_globals, ptr @executor_globals, i32 0, i32 5), ptr noundef %72, ptr noundef %3)
  ret i1 false
}